; Function Attrs: mustprogress nounwind uwtable
define void @_ZN7rocksdb28BaseReferencedVersionBuilderD2Ev(ptr nocapture noundef nonnull align 8 dereferenceable(16) %this) unnamed_addr #0 align 2 personality ptr @__gxx_personality_v0 {
entry:
  %version_ = getelementptr inbounds i8, ptr %this, i64 8
  %0 = load ptr, ptr %version_, align 8
  %call = invoke noundef zeroext i1 @_ZN7rocksdb7Version5UnrefEv(ptr noundef nonnull align 16 dereferenceable(4953) %0)
          to label %invoke.cont unwind label %terminate.lpad

invoke.cont:                                      ; preds = %entry
  %1 = load ptr, ptr %this, align 8
  %cmp.not.i = icmp eq ptr %1, null
  br i1 %cmp.not.i, label %_ZNSt10unique_ptrIN7rocksdb14VersionBuilderESt14default_deleteIS1_EED2Ev.exit, label %_ZNKSt14default_deleteIN7rocksdb14VersionBuilderEEclEPS1_.exit.i

_ZNKSt14default_deleteIN7rocksdb14VersionBuilderEEclEPS1_.exit.i: ; preds = %invoke.cont
  tail call void @_ZN7rocksdb14VersionBuilderD1Ev(ptr noundef nonnull align 8 dereferenceable(8) %1) #23
  tail call void @_ZdlPv(ptr noundef nonnull %1) #21
  br label %_ZNSt10unique_ptrIN7rocksdb14VersionBuilderESt14default_deleteIS1_EED2Ev.exit

_ZNSt10unique_ptrIN7rocksdb14VersionBuilderESt14default_deleteIS1_EED2Ev.exit: ; preds = %invoke.cont, %_ZNKSt14default_deleteIN7rocksdb14VersionBuilderEEclEPS1_.exit.i
  store ptr null, ptr %this, align 8
  ret void

terminate.lpad:                                   ; preds = %entry
  %2 = landingpad { ptr, i32 }
          catch ptr null
  %3 = extractvalue { ptr, i32 } %2, 0
  tail call void @__clang_call_terminate(ptr %3) #26
  unreachable
}